; Function Attrs: null_pointer_is_valid sspstrong uwtable
define internal void @zbee_free_key_record(ptr noundef %0) #1 {
  %.not = icmp eq ptr %0, null
  br i1 %.not, label %5, label %2

2:                                                ; preds = %1
  %3 = getelementptr inbounds nuw i8, ptr %0, i64 8
  %4 = load ptr, ptr %3, align 8
  tail call void @g_free(ptr noundef %4)
  tail call void @g_free(ptr noundef nonnull %0)
  br label %5

5:                                                ; preds = %1, %2
  ret void
}